; Function Attrs: mustprogress nounwind uwtable
define hidden void @_ZN14ZRelocationSet35register_in_place_relocate_promotedEP5ZPage(ptr noundef nonnull align 8 dereferenceable(120) %0, ptr noundef %1) local_unnamed_addr #0 align 2 {
_ZN7ZLockerI5ZLockED2Ev.exit:
  %2 = alloca ptr, align 8
  store ptr %1, ptr %2, align 8
  %3 = getelementptr inbounds i8, ptr %0, i64 48
  %4 = tail call i32 @pthread_mutex_lock(ptr noundef nonnull %3) #15
  %5 = getelementptr inbounds i8, ptr %0, i64 104
  %6 = call noundef i32 @_ZN26GrowableArrayWithAllocatorIP5ZPage18GrowableArrayCHeapIS1_L8MEMFLAGS5EEE6appendERKS1_(ptr noundef nonnull align 8 dereferenceable(16) %5, ptr noundef nonnull align 8 dereferenceable(8) %2)
  %7 = call i32 @pthread_mutex_unlock(ptr noundef nonnull %3) #15
  ret void
}